; Function Attrs: mustprogress uwtable
define internal noundef zeroext i1 @_ZNK9grpc_core12_GLOBAL__N_137NativeClientChannelDNSResolverFactory10IsValidUriERKNS_3URIE(ptr nocapture nonnull readnone align 8 %this, ptr noundef nonnull align 8 dereferenceable(200) %uri) unnamed_addr #3 align 2 personality ptr @__gxx_personality_v0 {
entry:
  %authority_.i = getelementptr inbounds i8, ptr %uri, i64 32
  %call2 = tail call noundef zeroext i1 @_ZNKSt7__cxx1112basic_stringIcSt11char_traitsIcESaIcEE5emptyEv(ptr noundef nonnull align 8 dereferenceable(32) %authority_.i) #17
  br i1 %call2, label %if.end, label %if.then

if.then:                                          ; preds = %entry
  tail call void (ptr, i32, i32, ptr, ...) @gpr_log(ptr noundef nonnull @.str.3, i32 noundef 154, i32 noundef 2, ptr noundef nonnull @.str.4)
  br label %return

if.end:                                           ; preds = %entry
  %path_.i = getelementptr inbounds i8, ptr %uri, i64 64
  %call4 = tail call { i64, ptr } @_ZNKSt7__cxx1112basic_stringIcSt11char_traitsIcESaIcEEcvSt17basic_string_viewIcS2_EEv(ptr noundef nonnull align 8 dereferenceable(32) %path_.i) #17
  %0 = extractvalue { i64, ptr } %call4, 0
  %cmp.not.i.i = icmp eq i64 %0, 0
  br i1 %cmp.not.i.i, label %if.then8, label %_ZN4absl12lts_2023080210StartsWithESt17basic_string_viewIcSt11char_traitsIcEES4_.exit.i

_ZN4absl12lts_2023080210StartsWithESt17basic_string_viewIcSt11char_traitsIcEES4_.exit.i: ; preds = %if.end
  %1 = extractvalue { i64, ptr } %call4, 1
  %lhsc = load i8, ptr %1, align 1
  %cmp7.i.i = icmp eq i8 %lhsc, 47
  %2 = icmp eq i64 %0, 1
  %or.cond = and i1 %2, %cmp7.i.i
  br i1 %or.cond, label %if.then8, label %return

if.then8:                                         ; preds = %if.end, %_ZN4absl12lts_2023080210StartsWithESt17basic_string_viewIcSt11char_traitsIcEES4_.exit.i
  tail call void (ptr, i32, i32, ptr, ...) @gpr_log(ptr noundef nonnull @.str.3, i32 noundef 158, i32 noundef 2, ptr noundef nonnull @.str.6)
  br label %return

return:                                           ; preds = %_ZN4absl12lts_2023080210StartsWithESt17basic_string_viewIcSt11char_traitsIcEES4_.exit.i, %if.then8, %if.then
  %retval.0 = phi i1 [ false, %if.then ], [ false, %if.then8 ], [ true, %_ZN4absl12lts_2023080210StartsWithESt17basic_string_viewIcSt11char_traitsIcEES4_.exit.i ]
  ret i1 %retval.0
}